target datalayout = "e-m:e-p270:32:32-p271:32:32-p272:64:64-i64:64-i128:128-f80:128-n8:16:32:64-S128"
target triple = "x86_64-pc-linux-gnu"

@hf_rtcp_rtpfb_tmbbr_fci_ssrc = internal global i32 0, align 4
@hf_rtcp_rtpfb_tmbbr_fci_exp = internal global i32 0, align 4
@hf_rtcp_rtpfb_tmbbr_fci_mantissa = internal global i32 0, align 4
@hf_rtcp_rtpfb_tmbbr_fci_bitrate = internal global i32 0, align 4
@hf_rtcp_rtpfb_tmbbr_fci_measuredoverhead = internal global i32 0, align 4
@ett_ssrc = internal global i32 0, align 4
@.str.913 = private unnamed_addr constant [1 x i8] zeroinitializer, align 1
@.str.1029 = private unnamed_addr constant [9 x i8] c"TMMBN %d\00", align 1
@.str.1030 = private unnamed_addr constant [9 x i8] c"TMMBR %d\00", align 1
@.str.1031 = private unnamed_addr constant [8 x i8] c"%u*2^%u\00", align 1
@.str.1032 = private unnamed_addr constant [17 x i8] c": TMMBN: %u*2^%u\00", align 1
@.str.1033 = private unnamed_addr constant [17 x i8] c": TMMBR: %u*2^%u\00", align 1

; Function Attrs: null_pointer_is_valid sspstrong uwtable
define internal i32 @dissect_rtcp_rtpfb_tmmbr_tmmbn_fci(ptr noundef %0, i32 noundef %1, ptr noundef %2, ptr noundef %3, i32 noundef %4, i1 noundef zeroext %5) #0 {
  %7 = alloca ptr, align 8
  %8 = alloca i32, align 4
  %9 = alloca ptr, align 8
  %10 = alloca ptr, align 8
  %11 = alloca i32, align 4
  %12 = alloca i8, align 1
  %13 = alloca i8, align 1
  %14 = alloca i32, align 4
  %15 = alloca ptr, align 8
  store ptr %0, ptr %7, align 8
  store i32 %1, ptr %8, align 4
  store ptr %2, ptr %9, align 8
  store ptr %3, ptr %10, align 8
  store i32 %4, ptr %11, align 4
  %16 = zext i1 %5 to i8
  store i8 %16, ptr %12, align 1
  call void @llvm.lifetime.start.p0(i64 1, ptr %13) #9
  call void @llvm.lifetime.start.p0(i64 4, ptr %14) #9
  call void @llvm.lifetime.start.p0(i64 8, ptr %15) #9
  %17 = load i8, ptr %12, align 1, !range !9, !noundef !10
  %18 = trunc i8 %17 to i1
  br i1 %18, label %19, label %26

19:                                               ; preds = %6
  %20 = load ptr, ptr %9, align 8
  %21 = load ptr, ptr %7, align 8
  %22 = load i32, ptr %8, align 4
  %23 = load i32, ptr @ett_ssrc, align 4
  %24 = load i32, ptr %11, align 4
  %25 = call ptr (ptr, ptr, i32, i32, i32, ptr, ptr, ...) @proto_tree_add_subtree_format(ptr noundef %20, ptr noundef %21, i32 noundef %22, i32 noundef 8, i32 noundef %23, ptr noundef null, ptr noundef @.str.1029, i32 noundef %24)
  store ptr %25, ptr %15, align 8
  br label %33

26:                                               ; preds = %6
  %27 = load ptr, ptr %9, align 8
  %28 = load ptr, ptr %7, align 8
  %29 = load i32, ptr %8, align 4
  %30 = load i32, ptr @ett_ssrc, align 4
  %31 = load i32, ptr %11, align 4
  %32 = call ptr (ptr, ptr, i32, i32, i32, ptr, ptr, ...) @proto_tree_add_subtree_format(ptr noundef %27, ptr noundef %28, i32 noundef %29, i32 noundef 8, i32 noundef %30, ptr noundef null, ptr noundef @.str.1030, i32 noundef %31)
  store ptr %32, ptr %15, align 8
  br label %33

33:                                               ; preds = %26, %19
  %34 = load ptr, ptr %15, align 8
  %35 = load i32, ptr @hf_rtcp_rtpfb_tmbbr_fci_ssrc, align 4
  %36 = load ptr, ptr %7, align 8
  %37 = load i32, ptr %8, align 4
  %38 = call ptr @proto_tree_add_item(ptr noundef %34, i32 noundef %35, ptr noundef %36, i32 noundef %37, i32 noundef 4, i32 noundef 0)
  %39 = load i32, ptr %8, align 4
  %40 = add i32 %39, 4
  store i32 %40, ptr %8, align 4
  %41 = load ptr, ptr %15, align 8
  %42 = load i32, ptr @hf_rtcp_rtpfb_tmbbr_fci_exp, align 4
  %43 = load ptr, ptr %7, align 8
  %44 = load i32, ptr %8, align 4
  %45 = call ptr @proto_tree_add_item(ptr noundef %41, i32 noundef %42, ptr noundef %43, i32 noundef %44, i32 noundef 1, i32 noundef 0)
  %46 = load ptr, ptr %7, align 8
  %47 = load i32, ptr %8, align 4
  %48 = call zeroext i8 @tvb_get_uint8(ptr noundef %46, i32 noundef %47)
  %49 = zext i8 %48 to i32
  %50 = and i32 %49, 252
  %51 = ashr i32 %50, 2
  %52 = trunc i32 %51 to i8
  store i8 %52, ptr %13, align 1
  %53 = load ptr, ptr %15, align 8
  %54 = load i32, ptr @hf_rtcp_rtpfb_tmbbr_fci_mantissa, align 4
  %55 = load ptr, ptr %7, align 8
  %56 = load i32, ptr %8, align 4
  %57 = call ptr @proto_tree_add_item(ptr noundef %53, i32 noundef %54, ptr noundef %55, i32 noundef %56, i32 noundef 3, i32 noundef 0)
  %58 = load ptr, ptr %7, align 8
  %59 = load i32, ptr %8, align 4
  %60 = call i32 @tvb_get_ntohl(ptr noundef %58, i32 noundef %59)
  %61 = and i32 %60, 67108352
  %62 = lshr i32 %61, 9
  store i32 %62, ptr %14, align 4
  %63 = load ptr, ptr %15, align 8
  %64 = load i32, ptr @hf_rtcp_rtpfb_tmbbr_fci_bitrate, align 4
  %65 = load ptr, ptr %7, align 8
  %66 = load i32, ptr %8, align 4
  %67 = load i32, ptr %14, align 4
  %68 = load i8, ptr %13, align 1
  %69 = zext i8 %68 to i32
  %70 = call ptr (ptr, i32, ptr, i32, i32, ptr, ptr, ...) @proto_tree_add_string_format_value(ptr noundef %63, i32 noundef %64, ptr noundef %65, i32 noundef %66, i32 noundef 3, ptr noundef @.str.913, ptr noundef @.str.1031, i32 noundef %67, i32 noundef %69)
  %71 = load i32, ptr %8, align 4
  %72 = add i32 %71, 3
  store i32 %72, ptr %8, align 4
  %73 = load ptr, ptr %15, align 8
  %74 = load i32, ptr @hf_rtcp_rtpfb_tmbbr_fci_measuredoverhead, align 4
  %75 = load ptr, ptr %7, align 8
  %76 = load i32, ptr %8, align 4
  %77 = call ptr @proto_tree_add_item(ptr noundef %73, i32 noundef %74, ptr noundef %75, i32 noundef %76, i32 noundef 1, i32 noundef 0)
  %78 = load i32, ptr %8, align 4
  %79 = add i32 %78, 1
  store i32 %79, ptr %8, align 4
  %80 = load ptr, ptr %10, align 8
  %81 = icmp ne ptr %80, null
  br i1 %81, label %82, label %98

82:                                               ; preds = %33
  %83 = load i8, ptr %12, align 1, !range !9, !noundef !10
  %84 = trunc i8 %83 to i1
  %85 = zext i1 %84 to i32
  %86 = icmp eq i32 %85, 1
  br i1 %86, label %87, label %92

87:                                               ; preds = %82
  %88 = load ptr, ptr %10, align 8
  %89 = load i32, ptr %14, align 4
  %90 = load i8, ptr %13, align 1
  %91 = zext i8 %90 to i32
  call void (ptr, ptr, ...) @proto_item_append_text(ptr noundef %88, ptr noundef @.str.1032, i32 noundef %89, i32 noundef %91)
  br label %97

92:                                               ; preds = %82
  %93 = load ptr, ptr %10, align 8
  %94 = load i32, ptr %14, align 4
  %95 = load i8, ptr %13, align 1
  %96 = zext i8 %95 to i32
  call void (ptr, ptr, ...) @proto_item_append_text(ptr noundef %93, ptr noundef @.str.1033, i32 noundef %94, i32 noundef %96)
  br label %97

97:                                               ; preds = %92, %87
  br label %98

98:                                               ; preds = %97, %33
  %99 = load i32, ptr %8, align 4
  call void @llvm.lifetime.end.p0(i64 8, ptr %15) #9
  call void @llvm.lifetime.end.p0(i64 4, ptr %14) #9
  call void @llvm.lifetime.end.p0(i64 1, ptr %13) #9
  ret i32 %99
}