; Function Attrs: null_pointer_is_valid sspstrong uwtable
define internal fastcc range(i32 -2147483640, 262152) i32 @dissect_rtcp_rtpfb_tmmbr_tmmbn_fci(ptr noundef %0, i32 noundef range(i32 -2147483648, 262144) %1, ptr noundef %2, ptr noundef %3, i32 noundef %4, i1 noundef zeroext %5) unnamed_addr #0 {
  %7 = load i32, ptr @ett_ssrc, align 4
  %.str.1029..str.1030 = select i1 %5, ptr @.str.1029, ptr @.str.1030
  %8 = tail call ptr (ptr, ptr, i32, i32, i32, ptr, ptr, ...) @proto_tree_add_subtree_format(ptr noundef %2, ptr noundef %0, i32 noundef %1, i32 noundef 8, i32 noundef %7, ptr noundef null, ptr noundef nonnull %.str.1029..str.1030, i32 noundef %4)
  %9 = load i32, ptr @hf_rtcp_rtpfb_tmbbr_fci_ssrc, align 4
  %10 = tail call ptr @proto_tree_add_item(ptr noundef %8, i32 noundef %9, ptr noundef %0, i32 noundef %1, i32 noundef 4, i32 noundef 0)
  %11 = add nsw i32 %1, 4
  %12 = load i32, ptr @hf_rtcp_rtpfb_tmbbr_fci_exp, align 4
  %13 = tail call ptr @proto_tree_add_item(ptr noundef %8, i32 noundef %12, ptr noundef %0, i32 noundef %11, i32 noundef 1, i32 noundef 0)
  %14 = tail call zeroext i8 @tvb_get_uint8(ptr noundef %0, i32 noundef %11)
  %15 = lshr i8 %14, 2
  %16 = load i32, ptr @hf_rtcp_rtpfb_tmbbr_fci_mantissa, align 4
  %17 = tail call ptr @proto_tree_add_item(ptr noundef %8, i32 noundef %16, ptr noundef %0, i32 noundef %11, i32 noundef 3, i32 noundef 0)
  %18 = tail call i32 @tvb_get_ntohl(ptr noundef %0, i32 noundef %11)
  %19 = lshr i32 %18, 9
  %20 = and i32 %19, 131071
  %21 = load i32, ptr @hf_rtcp_rtpfb_tmbbr_fci_bitrate, align 4
  %22 = zext nneg i8 %15 to i32
  %23 = tail call ptr (ptr, i32, ptr, i32, i32, ptr, ptr, ...) @proto_tree_add_string_format_value(ptr noundef %8, i32 noundef %21, ptr noundef %0, i32 noundef %11, i32 noundef 3, ptr noundef nonnull @.str.913, ptr noundef nonnull @.str.1031, i32 noundef %20, i32 noundef %22)
  %24 = add nsw i32 %1, 7
  %25 = load i32, ptr @hf_rtcp_rtpfb_tmbbr_fci_measuredoverhead, align 4
  %26 = tail call ptr @proto_tree_add_item(ptr noundef %8, i32 noundef %25, ptr noundef %0, i32 noundef %24, i32 noundef 1, i32 noundef 0)
  %.not = icmp eq ptr %3, null
  br i1 %.not, label %27, label %.sink.split

.sink.split:                                      ; preds = %6
  %.str.1032..str.1033 = select i1 %5, ptr @.str.1032, ptr @.str.1033
  tail call void (ptr, ptr, ...) @proto_item_append_text(ptr noundef nonnull %3, ptr noundef nonnull %.str.1032..str.1033, i32 noundef %20, i32 noundef %22)
  br label %27

27:                                               ; preds = %.sink.split, %6
  %28 = add nsw i32 %1, 8
  ret i32 %28
}